(lp0
(dp1
I0
I514
sI1
I500
sI2
I483
sI3
I505
sI4
I511
sI5
I502
sI6
I510
sI7
I485
sI8
I511
sI9
I499
sI10
I509
sI11
I507
sI12
I508
sI13
I497
sI14
I519
sI15
I509
sI16
I508
sI17
I516
sI18
I520
sI19
I517
sI20
I497
sI21
I515
sI22
I491
sI23
I501
sI24
I508
sI25
I483
sI26
I524
sI27
I506
sI28
I459
sI29
I507
sI30
I513
sI31
I493
sI32
I513
sI33
I519
sI34
I505
sI35
I495
sI36
I485
sI37
I515
sI38
I522
sI39
I491
sI40
I488
sI41
I514
sI42
I504
sI43
I538
sI44
I480
sI45
I495
sI46
I528
sI47
I506
sI48
I501
sI49
I510
sI50
I530
sI51
I490
sI52
I499
sI53
I523
sI54
I483
sI55
I519
sI56
I492
sI57
I509
sI58
I525
sI59
I503
sI60
I473
sI61
I503
sI62
I492
sI63
I522
sI64
I510
sI65
I522
sI66
I496
sI67
I491
sI68
I508
sI69
I506
sI70
I499
sI71
I502
sI72
I523
sI73
I526
sI74
I505
sI75
I508
sI76
I504
sI77
I508
sI78
I505
sI79
I524
sI80
I508
sI81
I500
sI82
I512
sI83
I509
sI84
I506
sI85
I508
sI86
I525
sI87
I515
sI88
I512
sI89
I524
sI90
I508
sI91
I526
sI92
I497
sI93
I517
sI94
I507
sI95
I505
sI96
I503
sI97
I512
sI98
I479
sI99
I488
sa(dp2
I0
I512
sI1
I501
sI2
I485
sI3
I508
sI4
I508
sI5
I506
sI6
I512
sI7
I489
sI8
I511
sI9
I501
sI10
I504
sI11
I507
sI12
I510
sI13
I496
sI14
I515
sI15
I510
sI16
I504
sI17
I514
sI18
I521
sI19
I521
sI20
I505
sI21
I513
sI22
I495
sI23
I502
sI24
I507
sI25
I485
sI26
I525
sI27
I504
sI28
I460
sI29
I503
sI30
I513
sI31
I491
sI32
I512
sI33
I520
sI34
I509
sI35
I499
sI36
I487
sI37
I514
sI38
I522
sI39
I494
sI40
I489
sI41
I513
sI42
I511
sI43
I538
sI44
I480
sI45
I492
sI46
I529
sI47
I504
sI48
I505
sI49
I510
sI50
I530
sI51
I488
sI52
I499
sI53
I524
sI54
I481
sI55
I519
sI56
I492
sI57
I506
sI58
I524
sI59
I500
sI60
I474
sI61
I503
sI62
I482
sI63
I523
sI64
I508
sI65
I525
sI66
I489
sI67
I494
sI68
I505
sI69
I500
sI70
I501
sI71
I503
sI72
I522
sI73
I528
sI74
I506
sI75
I510
sI76
I503
sI77
I504
sI78
I506
sI79
I527
sI80
I503
sI81
I500
sI82
I509
sI83
I507
sI84
I503
sI85
I508
sI86
I526
sI87
I513
sI88
I518
sI89
I521
sI90
I508
sI91
I526
sI92
I498
sI93
I520
sI94
I505
sI95
I509
sI96
I507
sI97
I512
sI98
I477
sI99
I485
sa.