(lp0
(dp1
I0
F501.6666666666661
sI1
F511.91666666666606
sI2
F493.4166666666661
sI3
F485.4166666666661
sI4
F520.5833333333323
sI5
F504.49999999999926
sI6
F512.4166666666661
sI7
F521.4499999999995
sI8
F531.4999999999994
sI9
F507.1666666666662
sI10
F521.8333333333328
sI11
F518.8333333333327
sI12
F528.3333333333328
sI13
F521.666666666666
sI14
F513.2499999999993
sI15
F497.33333333333275
sI16
F496.5833333333327
sI17
F490.4999999999992
sI18
F486.58333333333275
sI19
F512.9999999999995
sI20
F507.8333333333327
sI21
F513.7499999999991
sI22
F495.416666666666
sI23
F509.4166666666663
sI24
F494.0833333333327
sI25
F504.1666666666659
sI26
F507.8333333333327
sI27
F517.4166666666658
sI28
F491.7833333333328
sI29
F507.4166666666658
sI30
F504.08333333333286
sI31
F494.5833333333326
sI32
F501.33333333333275
sI33
F506.58333333333263
sI34
F508.66666666666595
sI35
F480.74999999999926
sI36
F507.2499999999993
sI37
F505.5833333333324
sI38
F503.0833333333325
sI39
F498.5833333333328
sI40
F496.9166666666658
sI41
F488.83333333333275
sI42
F501.4166666666662
sI43
F474.33333333333286
sI44
F529.7499999999994
sI45
F505.41666666666606
sI46
F508.1666666666662
sI47
F501.6666666666659
sI48
F494.2499999999993
sI49
F513.8333333333328
sI50
F514.5833333333326
sI51
F507.9166666666659
sI52
F494.08333333333263
sI53
F491.2499999999994
sI54
F499.4999999999996
sI55
F500.16666666666583
sI56
F511.66666666666595
sI57
F491.58333333333303
sI58
F523.916666666666
sI59
F503.8333333333326
sI60
F472.5833333333327
sI61
F521.6666666666661
sI62
F515.9166666666661
sI63
F515.6666666666662
sI64
F512.3333333333323
sI65
F475.3333333333327
sI66
F520.1666666666661
sI67
F498.1999999999991
sI68
F488.66666666666595
sI69
F508.6666666666659
sI70
F506.2833333333329
sI71
F507.8333333333328
sI72
F503.7499999999994
sI73
F485.6666666666661
sI74
F513.0833333333326
sI75
F491.99999999999955
sI76
F492.8333333333327
sI77
F498.16666666666606
sI78
F502.916666666666
sI79
F485.83333333333275
sI80
F497.1666666666663
sI81
F506.24999999999926
sI82
F498.2499999999998
sI83
F477.74999999999943
sI84
F503.41666666666595
sI85
F507.66666666666606
sI86
F515.0833333333327
sI87
F500.91666666666606
sI88
F477.7499999999994
sI89
F523.9999999999995
sI90
F500.44999999999925
sI91
F507.33333333333263
sI92
F503.8333333333325
sI93
F526.3333333333326
sI94
F491.2499999999995
sI95
F494.49999999999926
sI96
F488.74999999999915
sI97
F521.2499999999992
sI98
F500.2499999999995
sI99
F509.58333333333263
sa(dp2
I0
I502
sI1
I517
sI2
I497
sI3
I514
sI4
I531
sI5
I531
sI6
I528
sI7
I507
sI8
I494
sI9
I512
sI10
I511
sI11
I480
sI12
I489
sI13
I501
sI14
I491
sI15
I503
sI16
I477
sI17
I489
sI18
I500
sI19
I486
sI20
I509
sI21
I497
sI22
I485
sI23
I507
sI24
I482
sI25
I500
sI26
I524
sI27
I524
sI28
I535
sI29
I480
sI30
I539
sI31
I489
sI32
I508
sI33
I491
sI34
I489
sI35
I506
sI36
I501
sI37
I502
sI38
I526
sI39
I513
sI40
I511
sI41
I517
sI42
I499
sI43
I520
sI44
I504
sI45
I489
sI46
I490
sI47
I492
sI48
I481
sI49
I517
sI50
I517
sI51
I484
sI52
I508
sI53
I520
sI54
I517
sI55
I508
sI56
I510
sI57
I472
sI58
I519
sI59
I465
sI60
I523
sI61
I538
sI62
I498
sI63
I495
sI64
I547
sI65
I505
sI66
I513
sI67
I493
sI68
I505
sI69
I479
sI70
I477
sI71
I491
sI72
I510
sI73
I491
sI74
I517
sI75
I501
sI76
I509
sI77
I502
sI78
I511
sI79
I485
sI80
I516
sI81
I525
sI82
I487
sI83
I528
sI84
I484
sI85
I505
sI86
I514
sI87
I496
sI88
I499
sI89
I483
sI90
I513
sI91
I490
sI92
I526
sI93
I492
sI94
I494
sI95
I499
sI96
I488
sI97
I490
sI98
I534
sI99
I500
sa.