(lp0
(dp1
I0
I480
sI1
I495
sI2
I470
sI3
I496
sI4
I528
sI5
I471
sI6
I506
sI7
I506
sI8
I492
sI9
I512
sI10
I488
sI11
I473
sI12
I555
sI13
I510
sI14
I532
sI15
I494
sI16
I493
sI17
I469
sI18
I505
sI19
I471
sI20
I485
sI21
I515
sI22
I500
sI23
I489
sI24
I515
sI25
I519
sI26
I482
sI27
I524
sI28
I496
sI29
I513
sI30
I485
sI31
I474
sI32
I487
sI33
I477
sI34
I505
sI35
I483
sI36
I500
sI37
I517
sI38
I556
sI39
I492
sI40
I543
sI41
I496
sI42
I544
sI43
I498
sI44
I498
sI45
I484
sI46
I531
sI47
I546
sI48
I473
sI49
I489
sI50
I501
sI51
I524
sI52
I473
sI53
I486
sI54
I509
sI55
I538
sI56
I498
sI57
I509
sI58
I491
sI59
I487
sI60
I475
sI61
I490
sI62
I540
sI63
I508
sI64
I519
sI65
I475
sI66
I495
sI67
I544
sI68
I531
sI69
I525
sI70
I514
sI71
I499
sI72
I476
sI73
I499
sI74
I482
sI75
I475
sI76
I518
sI77
I496
sI78
I506
sI79
I477
sI80
I480
sI81
I499
sI82
I532
sI83
I520
sI84
I501
sI85
I505
sI86
I530
sI87
I523
sI88
I501
sI89
I485
sI90
I470
sI91
I524
sI92
I490
sI93
I475
sI94
I471
sI95
I541
sI96
I479
sI97
I482
sI98
I511
sI99
I539
sa(dp2
I0
I485
sI1
I475
sI2
I472
sI3
I497
sI4
I507
sI5
I497
sI6
I532
sI7
I516
sI8
I488
sI9
I497
sI10
I502
sI11
I483
sI12
I533
sI13
I498
sI14
I539
sI15
I496
sI16
I523
sI17
I482
sI18
I532
sI19
I506
sI20
I500
sI21
I531
sI22
I510
sI23
I513
sI24
I500
sI25
I516
sI26
I490
sI27
I511
sI28
I483
sI29
I527
sI30
I488
sI31
I491
sI32
I496
sI33
I495
sI34
I488
sI35
I489
sI36
I522
sI37
I501
sI38
I536
sI39
I493
sI40
I531
sI41
I500
sI42
I522
sI43
I515
sI44
I503
sI45
I483
sI46
I504
sI47
I505
sI48
I487
sI49
I509
sI50
I494
sI51
I505
sI52
I478
sI53
I481
sI54
I497
sI55
I538
sI56
I500
sI57
I500
sI58
I485
sI59
I482
sI60
I483
sI61
I481
sI62
I511
sI63
I502
sI64
I503
sI65
I479
sI66
I489
sI67
I510
sI68
I523
sI69
I523
sI70
I511
sI71
I500
sI72
I480
sI73
I502
sI74
I494
sI75
I486
sI76
I529
sI77
I499
sI78
I499
sI79
I483
sI80
I503
sI81
I486
sI82
I505
sI83
I493
sI84
I530
sI85
I508
sI86
I507
sI87
I512
sI88
I505
sI89
I496
sI90
I496
sI91
I504
sI92
I491
sI93
I478
sI94
I498
sI95
I517
sI96
I495
sI97
I502
sI98
I500
sI99
I508
sa.