(lp0
(dp1
I0
I510
sI1
I486
sI2
I491
sI3
I524
sI4
I499
sI5
I497
sI6
I495
sI7
I497
sI8
I514
sI9
I503
sI10
I502
sI11
I515
sI12
I509
sI13
I502
sI14
I505
sI15
I485
sI16
I499
sI17
I494
sI18
I524
sI19
I506
sI20
I511
sI21
I515
sI22
I504
sI23
I523
sI24
I499
sI25
I536
sI26
I541
sI27
I497
sI28
I523
sI29
I511
sI30
I532
sI31
I518
sI32
I520
sI33
I504
sI34
I505
sI35
I497
sI36
I507
sI37
I503
sI38
I519
sI39
I483
sI40
I507
sI41
I522
sI42
I500
sI43
I526
sI44
I495
sI45
I515
sI46
I490
sI47
I460
sI48
I529
sI49
I490
sI50
I535
sI51
I498
sI52
I493
sI53
I487
sI54
I504
sI55
I542
sI56
I517
sI57
I514
sI58
I486
sI59
I505
sI60
I507
sI61
I512
sI62
I508
sI63
I520
sI64
I502
sI65
I509
sI66
I484
sI67
I495
sI68
I496
sI69
I517
sI70
I515
sI71
I522
sI72
I481
sI73
I510
sI74
I521
sI75
I511
sI76
I472
sI77
I505
sI78
I476
sI79
I487
sI80
I506
sI81
I516
sI82
I507
sI83
I509
sI84
I492
sI85
I490
sI86
I503
sI87
I501
sI88
I498
sI89
I520
sI90
I498
sI91
I491
sI92
I521
sI93
I524
sI94
I489
sI95
I481
sI96
I492
sI97
I501
sI98
I490
sI99
I508
sa(dp2
I0
I521
sI1
I500
sI2
I504
sI3
I509
sI4
I466
sI5
I498
sI6
I497
sI7
I538
sI8
I502
sI9
I507
sI10
I481
sI11
I509
sI12
I481
sI13
I514
sI14
I506
sI15
I500
sI16
I520
sI17
I499
sI18
I527
sI19
I515
sI20
I518
sI21
I486
sI22
I515
sI23
I479
sI24
I515
sI25
I497
sI26
I462
sI27
I498
sI28
I461
sI29
I494
sI30
I492
sI31
I531
sI32
I505
sI33
I491
sI34
I507
sI35
I513
sI36
I498
sI37
I492
sI38
I498
sI39
I523
sI40
I510
sI41
I521
sI42
I517
sI43
I528
sI44
I508
sI45
I515
sI46
I511
sI47
I480
sI48
I484
sI49
I523
sI50
I524
sI51
I489
sI52
I537
sI53
I502
sI54
I522
sI55
I503
sI56
I508
sI57
I525
sI58
I507
sI59
I521
sI60
I505
sI61
I497
sI62
I504
sI63
I495
sI64
I501
sI65
I510
sI66
I510
sI67
I534
sI68
I494
sI69
I507
sI70
I478
sI71
I508
sI72
I480
sI73
I487
sI74
I519
sI75
I476
sI76
I496
sI77
I494
sI78
I499
sI79
I512
sI80
I522
sI81
I500
sI82
I469
sI83
I490
sI84
I507
sI85
I515
sI86
I505
sI87
I527
sI88
I496
sI89
I504
sI90
I538
sI91
I493
sI92
I507
sI93
I501
sI94
I528
sI95
I521
sI96
I535
sI97
I505
sI98
I513
sI99
I521
sa.