(lp0
(dp1
I0
I692
sI1
I707
sI2
I710
sI3
I706
sI4
I704
sI5
I669
sI6
I708
sI7
I697
sI8
I680
sI9
I698
sI10
I695
sI11
I700
sI12
I696
sI13
I692
sI14
I710
sI15
I705
sI16
I687
sI17
I712
sI18
I719
sI19
I709
sI20
I703
sI21
I702
sI22
I705
sI23
I707
sI24
I714
sI25
I734
sI26
I698
sI27
I696
sI28
I701
sI29
I721
sI30
I695
sI31
I688
sI32
I694
sI33
I693
sI34
I728
sI35
I721
sI36
I710
sI37
I691
sI38
I723
sI39
I699
sI40
I688
sI41
I720
sI42
I697
sI43
I685
sI44
I685
sI45
I671
sI46
I700
sI47
I695
sI48
I680
sI49
I696
sI50
I681
sI51
I700
sI52
I696
sI53
I714
sI54
I687
sI55
I692
sI56
I689
sI57
I690
sI58
I696
sI59
I703
sI60
I710
sI61
I709
sI62
I704
sI63
I690
sI64
I690
sI65
I706
sI66
I690
sI67
I695
sI68
I703
sI69
I722
sI70
I660
sI71
I723
sI72
I708
sI73
I696
sI74
I712
sI75
I713
sI76
I691
sI77
I675
sI78
I691
sI79
I699
sI80
I708
sI81
I726
sI82
I689
sI83
I710
sI84
I700
sI85
I677
sI86
I695
sI87
I692
sI88
I712
sI89
I726
sI90
I690
sI91
I703
sI92
I693
sI93
I705
sI94
I696
sI95
I693
sI96
I700
sI97
I722
sI98
I687
sI99
I690
sa(dp2
I0
I673
sI1
I738
sI2
I732
sI3
I690
sI4
I726
sI5
I722
sI6
I636
sI7
I680
sI8
I664
sI9
I734
sI10
I710
sI11
I674
sI12
I706
sI13
I689
sI14
I750
sI15
I701
sI16
I681
sI17
I692
sI18
I729
sI19
I726
sI20
I675
sI21
I699
sI22
I661
sI23
I712
sI24
I709
sI25
I676
sI26
I700
sI27
I700
sI28
I704
sI29
I714
sI30
I695
sI31
I721
sI32
I664
sI33
I654
sI34
I736
sI35
I715
sI36
I675
sI37
I691
sI38
I690
sI39
I685
sI40
I700
sI41
I674
sI42
I691
sI43
I709
sI44
I727
sI45
I719
sI46
I737
sI47
I729
sI48
I684
sI49
I687
sI50
I701
sI51
I689
sI52
I710
sI53
I702
sI54
I688
sI55
I734
sI56
I668
sI57
I745
sI58
I711
sI59
I687
sI60
I726
sI61
I691
sI62
I723
sI63
I717
sI64
I671
sI65
I708
sI66
I696
sI67
I691
sI68
I674
sI69
I739
sI70
I688
sI71
I687
sI72
I710
sI73
I708
sI74
I714
sI75
I684
sI76
I683
sI77
I712
sI78
I711
sI79
I660
sI80
I666
sI81
I711
sI82
I718
sI83
I751
sI84
I712
sI85
I706
sI86
I717
sI87
I709
sI88
I708
sI89
I690
sI90
I681
sI91
I687
sI92
I700
sI93
I666
sI94
I655
sI95
I736
sI96
I665
sI97
I751
sI98
I683
sI99
I659
sa.