(lp0
(dp1
I0
F493.31666666666604
sI1
F502.2333333333325
sI2
F527.9499999999992
sI3
F511.20952380952326
sI4
F483.36666666666565
sI5
F514.516666666666
sI6
F499.4666666666658
sI7
F511.5499999999993
sI8
F518.3666666666661
sI9
F507.53333333333273
sI10
F499.01666666666597
sI11
F506.9333333333327
sI12
F517.8666666666661
sI13
F509.0999999999994
sI14
F517.3999999999992
sI15
F515.1999999999991
sI16
F480.9999999999993
sI17
F523.5166666666663
sI18
F515.1333333333328
sI19
F514.6666666666661
sI20
F498.46666666666624
sI21
F505.56666666666575
sI22
F508.01666666666614
sI23
F496.73333333333267
sI24
F504.8666666666661
sI25
F526.5666666666664
sI26
F497.71666666666573
sI27
F510.56666666666615
sI28
F497.99999999999926
sI29
F495.6166666666661
sI30
F468.34999999999917
sI31
F504.5166666666659
sI32
F518.3999999999992
sI33
F497.8333333333325
sI34
F508.33333333333286
sI35
F492.71666666666613
sI36
F526.8999999999997
sI37
F521.1928571428566
sI38
F510.13333333333264
sI39
F490.7499999999993
sI40
F508.94999999999965
sI41
F501.466666666666
sI42
F481.0428571428565
sI43
F528.8333333333329
sI44
F513.9499999999991
sI45
F525.3999999999992
sI46
F503.93333333333277
sI47
F486.39999999999947
sI48
F507.9333333333328
sI49
F496.183333333333
sI50
F515.6999999999995
sI51
F485.166666666666
sI52
F493.63333333333287
sI53
F491.8833333333327
sI54
F510.0833333333328
sI55
F492.4999999999994
sI56
F524.1999999999995
sI57
F512.066666666666
sI58
F508.1666666666661
sI59
F516.8666666666659
sI60
F508.1095238095229
sI61
F485.9166666666662
sI62
F487.1499999999992
sI63
F511.1999999999994
sI64
F502.73333333333255
sI65
F520.4333333333326
sI66
F503.7999999999994
sI67
F539.0761904761898
sI68
F500.6166666666657
sI69
F475.2666666666657
sI70
F487.09999999999934
sI71
F466.7761904761898
sI72
F526.1999999999994
sI73
F519.483333333333
sI74
F497.29999999999916
sI75
F475.33333333333275
sI76
F513.6499999999996
sI77
F499.5999999999995
sI78
F479.1333333333328
sI79
F524.1261904761899
sI80
F509.4333333333328
sI81
F499.866666666666
sI82
F491.69999999999953
sI83
F511.6166666666658
sI84
F492.54999999999944
sI85
F489.8166666666661
sI86
F514.9333333333328
sI87
F502.9833333333326
sI88
F496.89999999999947
sI89
F503.9333333333326
sI90
F504.8666666666658
sI91
F508.6499999999992
sI92
F515.9499999999996
sI93
F512.0666666666662
sI94
F488.63333333333287
sI95
F503.5333333333325
sI96
F513.2666666666661
sI97
F503.54999999999933
sI98
F484.5499999999994
sI99
F489.2499999999993
sa(dp2
I0
I520
sI1
I526
sI2
I488
sI3
I530
sI4
I494
sI5
I515
sI6
I477
sI7
I517
sI8
I479
sI9
I495
sI10
I502
sI11
I492
sI12
I490
sI13
I516
sI14
I472
sI15
I514
sI16
I486
sI17
I518
sI18
I473
sI19
I500
sI20
I517
sI21
I501
sI22
I502
sI23
I497
sI24
I497
sI25
I493
sI26
I510
sI27
I504
sI28
I532
sI29
I511
sI30
I514
sI31
I498
sI32
I494
sI33
I487
sI34
I511
sI35
I482
sI36
I525
sI37
I496
sI38
I491
sI39
I493
sI40
I512
sI41
I493
sI42
I482
sI43
I504
sI44
I503
sI45
I537
sI46
I501
sI47
I498
sI48
I501
sI49
I487
sI50
I484
sI51
I475
sI52
I505
sI53
I518
sI54
I486
sI55
I520
sI56
I490
sI57
I537
sI58
I484
sI59
I514
sI60
I524
sI61
I495
sI62
I508
sI63
I523
sI64
I542
sI65
I509
sI66
I501
sI67
I533
sI68
I506
sI69
I514
sI70
I503
sI71
I490
sI72
I515
sI73
I510
sI74
I515
sI75
I501
sI76
I515
sI77
I494
sI78
I490
sI79
I477
sI80
I503
sI81
I502
sI82
I502
sI83
I487
sI84
I526
sI85
I522
sI86
I492
sI87
I501
sI88
I504
sI89
I502
sI90
I507
sI91
I518
sI92
I496
sI93
I515
sI94
I508
sI95
I537
sI96
I505
sI97
I519
sI98
I506
sI99
I509
sa.