(lp0
(dp1
I0
I720
sI1
I590
sI2
I590
sI3
I610
sI4
I650
sI5
I650
sI6
I610
sI7
I640
sI8
I600
sI9
I720
sI10
I660
sI11
I580
sI12
I350
sI13
I600
sI14
I570
sI15
I560
sI16
I800
sI17
I760
sI18
I740
sI19
I740
sI20
I750
sI21
I530
sI22
I470
sI23
I670
sI24
I720
sa(dp2
I0
I650
sI1
I760
sI2
I600
sI3
I640
sI4
I610
sI5
I610
sI6
I620
sI7
I610
sI8
I620
sI9
I640
sI10
I670
sI11
I630
sI12
I640
sI13
I710
sI14
I600
sI15
I640
sI16
I560
sI17
I640
sI18
I660
sI19
I650
sI20
I570
sI21
I700
sI22
I670
sI23
I600
sI24
I580
sa.