(lp0
(dp1
I0
F442.866666666666
sI1
F500.19999999999925
sI2
F482.9333333333328
sI3
F489.66666666666623
sI4
F516.114285714286
sI5
F523.1333333333334
sI6
F520.800000000001
sI7
F539.3666666666677
sI8
F421.19047619047547
sI9
F457.7380952380943
sI10
F467.06666666666547
sI11
F497.13809523809505
sI12
F501.3857142857141
sI13
F518.3285714285722
sI14
F533.1666666666677
sI15
F563.9428571428581
sI16
F478.65714285714233
sI17
F469.6333333333323
sI18
F500.26666666666597
sI19
F477.8333333333332
sI20
F509.4380952380956
sI21
F514.2571428571432
sI22
F541.9428571428581
sI23
F563.5333333333338
sI24
F431.03809523809514
sI25
F470.057142857142
sI26
F491.766666666666
sI27
F504.46666666666636
sI28
F497.96666666666664
sI29
F535.1666666666673
sI30
F550.171428571429
sI31
F549.8523809523818
sI32
F461.29999999999956
sI33
F469.51428571428494
sI34
F483.6666666666663
sI35
F490.03333333333325
sI36
F507.5333333333334
sI37
F523.6619047619049
sI38
F558.1666666666674
sI39
F564.235714285715
sI40
F466.50952380952344
sI41
F466.54285714285635
sI42
F496.004761904761
sI43
F502.2333333333327
sI44
F499.633333333333
sI45
F500.1000000000003
sI46
F525.8000000000009
sI47
F570.6000000000004
sI48
F453.3333333333323
sI49
F482.4999999999992
sI50
F497.9428571428565
sI51
F488.1333333333331
sI52
F495.7000000000003
sI53
F547.8690476190479
sI54
F540.8333333333337
sI55
F539.038095238096
sI56
F458.93809523809415
sI57
F471.73809523809496
sI58
F496.4333333333329
sI59
F506.43333333333334
sI60
F518.4523809523814
sI61
F532.733333333334
sI62
F543.7547619047626
sI63
F559.333333333334
sI64
F409.83333333333263
sI65
F461.33333333333223
sI66
F484.5999999999996
sI67
F496.98095238095215
sI68
F501.13333333333304
sI69
F554.0666666666668
sI70
F549.0000000000007
sI71
F535.8333333333343
sI72
F466.0999999999989
sI73
F463.6999999999992
sI74
F499.4999999999992
sI75
F517.7666666666661
sI76
F513.3380952380951
sI77
F490.80000000000007
sI78
F531.6500000000003
sI79
F541.7333333333339
sI80
F472.1571428571416
sI81
F482.3999999999989
sI82
F500.64285714285654
sI83
F498.93333333333277
sI84
F489.05714285714316
sI85
F516.2666666666671
sI86
F555.5333333333338
sI87
F545.8380952380963
sI88
F460.92380952380876
sI89
F486.46666666666596
sI90
F481.53333333333296
sI91
F505.8142857142853
sI92
F520.2428571428574
sI93
F536.5666666666672
sI94
F537.4333333333336
sI95
F570.6047619047622
sI96
F446.1333333333326
sI97
F464.3809523809517
sI98
F484.5809523809517
sI99
F509.33333333333263
sa(dp2
I0
I514
sI1
I502
sI2
I527
sI3
I478
sI4
I491
sI5
I513
sI6
I500
sI7
I500
sI8
I512
sI9
I504
sI10
I514
sI11
I513
sI12
I469
sI13
I499
sI14
I498
sI15
I515
sI16
I513
sI17
I468
sI18
I508
sI19
I512
sI20
I497
sI21
I479
sI22
I511
sI23
I513
sI24
I506
sI25
I521
sI26
I520
sI27
I517
sI28
I508
sI29
I503
sI30
I519
sI31
I506
sI32
I528
sI33
I495
sI34
I506
sI35
I491
sI36
I500
sI37
I500
sI38
I505
sI39
I503
sI40
I528
sI41
I532
sI42
I517
sI43
I496
sI44
I517
sI45
I506
sI46
I495
sI47
I503
sI48
I477
sI49
I511
sI50
I494
sI51
I474
sI52
I513
sI53
I519
sI54
I478
sI55
I498
sI56
I515
sI57
I486
sI58
I501
sI59
I507
sI60
I507
sI61
I506
sI62
I466
sI63
I491
sI64
I493
sI65
I519
sI66
I494
sI67
I524
sI68
I503
sI69
I494
sI70
I506
sI71
I514
sI72
I496
sI73
I485
sI74
I521
sI75
I513
sI76
I529
sI77
I508
sI78
I522
sI79
I486
sI80
I505
sI81
I506
sI82
I518
sI83
I513
sI84
I509
sI85
I492
sI86
I503
sI87
I529
sI88
I491
sI89
I498
sI90
I499
sI91
I501
sI92
I480
sI93
I493
sI94
I484
sI95
I501
sI96
I484
sI97
I510
sI98
I517
sI99
I507
sa.