(lp0
(dp1
I0
F438.8666666666658
sI1
F458.6666666666657
sI2
F474.2666666666659
sI3
F491.4999999999998
sI4
F497.595238095238
sI5
F524.4000000000003
sI6
F537.6333333333341
sI7
F545.2428571428578
sI8
F444.3666666666657
sI9
F464.16666666666606
sI10
F471.02857142857044
sI11
F497.55714285714225
sI12
F469.4999999999996
sI13
F522.3761904761907
sI14
F550.161904761905
sI15
F550.4000000000007
sI16
F447.5285714285707
sI17
F460.7761904761898
sI18
F467.5333333333325
sI19
F511.26666666666654
sI20
F515.3000000000002
sI21
F547.7666666666668
sI22
F551.8428571428575
sI23
F542.0000000000008
sI24
F426.4785714285708
sI25
F489.69999999999936
sI26
F466.43809523809506
sI27
F507.50476190476127
sI28
F519.9333333333334
sI29
F554.1666666666672
sI30
F525.9000000000002
sI31
F550.5190476190481
sI32
F455.5999999999993
sI33
F475.72857142857083
sI34
F466.6476190476185
sI35
F482.1428571428565
sI36
F536.1666666666666
sI37
F542.4714285714286
sI38
F532.8666666666669
sI39
F545.7285714285723
sI40
F461.999999999999
sI41
F452.266666666666
sI42
F499.1857142857137
sI43
F504.5666666666663
sI44
F528.5666666666668
sI45
F547.1761904761908
sI46
F547.0333333333336
sI47
F541.0714285714296
sI48
F460.79999999999865
sI49
F456.25714285714224
sI50
F494.1333333333327
sI51
F481.14761904761843
sI52
F479.1333333333334
sI53
F541.7238095238102
sI54
F548.8380952380957
sI55
F547.2000000000008
sI56
F463.6333333333324
sI57
F465.919047619047
sI58
F502.70952380952303
sI59
F489.7333333333336
sI60
F522.0000000000002
sI61
F541.4857142857147
sI62
F555.8666666666669
sI63
F569.8666666666669
sI64
F452.7666666666655
sI65
F472.5142857142851
sI66
F505.6333333333326
sI67
F485.0999999999997
sI68
F528.2333333333335
sI69
F541.9333333333341
sI70
F544.9023809523818
sI71
F563.4761904761914
sI72
F474.8999999999992
sI73
F485.966666666666
sI74
F471.7666666666659
sI75
F532.7333333333335
sI76
F544.6999999999999
sI77
F516.2666666666676
sI78
F563.7333333333339
sI79
F574.0666666666673
sI80
F472.8095238095232
sI81
F485.8666666666657
sI82
F476.7404761904756
sI83
F501.7142857142854
sI84
F538.7904761904766
sI85
F528.3333333333336
sI86
F538.6571428571438
sI87
F563.7238095238104
sI88
F435.757142857142
sI89
F478.9999999999992
sI90
F477.5999999999989
sI91
F506.133333333333
sI92
F534.1999999999999
sI93
F540.2166666666669
sI94
F559.7333333333337
sI95
F592.7666666666664
sI96
F468.5999999999987
sI97
F479.133333333333
sI98
F481.0999999999996
sI99
F507.3809523809521
sa(dp2
I0
I537
sI1
I503
sI2
I503
sI3
I501
sI4
I496
sI5
I503
sI6
I501
sI7
I502
sI8
I491
sI9
I479
sI10
I470
sI11
I520
sI12
I503
sI13
I507
sI14
I516
sI15
I521
sI16
I491
sI17
I526
sI18
I521
sI19
I501
sI20
I511
sI21
I525
sI22
I508
sI23
I502
sI24
I498
sI25
I493
sI26
I490
sI27
I512
sI28
I515
sI29
I499
sI30
I485
sI31
I495
sI32
I510
sI33
I496
sI34
I517
sI35
I518
sI36
I501
sI37
I497
sI38
I523
sI39
I523
sI40
I504
sI41
I506
sI42
I500
sI43
I519
sI44
I531
sI45
I519
sI46
I506
sI47
I512
sI48
I502
sI49
I517
sI50
I512
sI51
I509
sI52
I516
sI53
I510
sI54
I536
sI55
I514
sI56
I499
sI57
I503
sI58
I514
sI59
I508
sI60
I530
sI61
I471
sI62
I483
sI63
I504
sI64
I484
sI65
I492
sI66
I480
sI67
I508
sI68
I510
sI69
I486
sI70
I511
sI71
I500
sI72
I506
sI73
I535
sI74
I505
sI75
I540
sI76
I527
sI77
I513
sI78
I499
sI79
I516
sI80
I483
sI81
I523
sI82
I513
sI83
I509
sI84
I520
sI85
I512
sI86
I521
sI87
I496
sI88
I500
sI89
I495
sI90
I508
sI91
I502
sI92
I507
sI93
I527
sI94
I518
sI95
I495
sI96
I494
sI97
I505
sI98
I504
sI99
I510
sa.